; Function Attrs: mustprogress nofree norecurse nosync nounwind willreturn memory(write, argmem: readwrite, inaccessiblemem: none) uwtable
define dso_local void @_ZN4llvm9DbgMarker15insertDbgRecordEPNS_9DbgRecordES2_(ptr noundef nonnull align 8 dereferenceable(24) %0, ptr noundef %1, ptr noundef %2) local_unnamed_addr #6 align 2 {
  %4 = load ptr, ptr %2, align 8
  %5 = getelementptr inbounds nuw i8, ptr %1, i64 8
  store ptr %2, ptr %5, align 8
  store ptr %4, ptr %1, align 8
  %6 = getelementptr inbounds nuw i8, ptr %4, i64 8
  store ptr %1, ptr %6, align 8
  store ptr %1, ptr %2, align 8
  %7 = getelementptr inbounds nuw i8, ptr %1, i64 16
  store ptr %0, ptr %7, align 8
  ret void
}